; Function Attrs: mustprogress uwtable
define void @mupClearOprt(ptr noundef %0) local_unnamed_addr #11 personality ptr @__gxx_personality_v0 {
  %2 = alloca %"class.mu::ParserError", align 8
  %3 = load ptr, ptr %0, align 8, !tbaa !4
  invoke void @_ZN2mu10ParserBase9ClearOprtEv(ptr noundef nonnull align 8 dereferenceable(596) %3)
          to label %40 unwind label %4

4:                                                ; preds = %1
  %5 = landingpad { ptr, i32 }
          catch ptr @_ZTIN2mu11ParserErrorE
          catch ptr null
  %6 = extractvalue { ptr, i32 } %5, 0
  %7 = extractvalue { ptr, i32 } %5, 1
  %8 = tail call i32 @llvm.eh.typeid.for.p0(ptr nonnull @_ZTIN2mu11ParserErrorE) #23
  %9 = icmp eq i32 %7, %8
  %10 = tail call ptr @__cxa_begin_catch(ptr %6) #23
  br i1 %9, label %11, label %19

11:                                               ; preds = %4
  %12 = getelementptr inbounds nuw i8, ptr %0, i64 8
  %13 = invoke noundef nonnull align 8 dereferenceable(112) ptr @_ZN2mu11ParserErroraSERKS0_(ptr noundef nonnull align 8 dereferenceable(112) %12, ptr noundef nonnull align 8 dereferenceable(112) %10)
          to label %14 unwind label %37

14:                                               ; preds = %11
  %15 = getelementptr inbounds nuw i8, ptr %0, i64 128
  store i8 1, ptr %15, align 8, !tbaa !19
  %16 = getelementptr inbounds nuw i8, ptr %0, i64 120
  %17 = load ptr, ptr %16, align 8, !tbaa !20
  %.not27 = icmp eq ptr %17, null
  br i1 %.not27, label %39, label %18

18:                                               ; preds = %14
  invoke void %17(ptr noundef nonnull %0)
          to label %39 unwind label %37

19:                                               ; preds = %4
  call void @llvm.lifetime.start.p0(i64 112, ptr nonnull %2) #23
  invoke void @_ZN2mu11ParserErrorC1ENS_11EErrorCodesE(ptr noundef nonnull align 8 dereferenceable(112) %2, i32 noundef 39)
          to label %20 unwind label %28

20:                                               ; preds = %19
  %21 = getelementptr inbounds nuw i8, ptr %0, i64 8
  %22 = invoke noundef nonnull align 8 dereferenceable(112) ptr @_ZN2mu11ParserErroraSERKS0_(ptr noundef nonnull align 8 dereferenceable(112) %21, ptr noundef nonnull align 8 dereferenceable(112) %2)
          to label %23 unwind label %30

23:                                               ; preds = %20
  call void @_ZN2mu11ParserErrorD1Ev(ptr noundef nonnull align 8 dereferenceable(112) %2) #23
  call void @llvm.lifetime.end.p0(i64 112, ptr nonnull %2) #23
  %24 = getelementptr inbounds nuw i8, ptr %0, i64 128
  store i8 1, ptr %24, align 8, !tbaa !19
  %25 = getelementptr inbounds nuw i8, ptr %0, i64 120
  %26 = load ptr, ptr %25, align 8, !tbaa !20
  %.not = icmp eq ptr %26, null
  br i1 %.not, label %35, label %27

27:                                               ; preds = %23
  invoke void %26(ptr noundef nonnull %0)
          to label %35 unwind label %33

28:                                               ; preds = %19
  %29 = landingpad { ptr, i32 }
          cleanup
  br label %32

30:                                               ; preds = %20
  %31 = landingpad { ptr, i32 }
          cleanup
  call void @_ZN2mu11ParserErrorD1Ev(ptr noundef nonnull align 8 dereferenceable(112) %2) #23
  br label %32

32:                                               ; preds = %30, %28
  %.pn = phi { ptr, i32 } [ %31, %30 ], [ %29, %28 ]
  call void @llvm.lifetime.end.p0(i64 112, ptr nonnull %2) #23
  br label %36

33:                                               ; preds = %27
  %34 = landingpad { ptr, i32 }
          cleanup
  br label %36

35:                                               ; preds = %27, %23
  call void @__cxa_end_catch()
  br label %40

36:                                               ; preds = %33, %32
  %.pn25 = phi { ptr, i32 } [ %34, %33 ], [ %.pn, %32 ]
  invoke void @__cxa_end_catch()
          to label %41 unwind label %42

37:                                               ; preds = %18, %11
  %38 = landingpad { ptr, i32 }
          cleanup
  invoke void @__cxa_end_catch()
          to label %41 unwind label %42

39:                                               ; preds = %18, %14
  tail call void @__cxa_end_catch()
  br label %40

40:                                               ; preds = %1, %39, %35
  ret void

41:                                               ; preds = %37, %36
  %.pn28 = phi { ptr, i32 } [ %.pn25, %36 ], [ %38, %37 ]
  resume { ptr, i32 } %.pn28

42:                                               ; preds = %37, %36
  %43 = landingpad { ptr, i32 }
          catch ptr null
  %44 = extractvalue { ptr, i32 } %43, 0
  call void @__clang_call_terminate(ptr %44) #24
  unreachable
}